; Function Attrs: mustprogress uwtable
define dso_local void @_ZN3net24QuicCompressedCertsCache11CachedCertsC2ERKS1_(ptr noundef nonnull align 8 dereferenceable(104) %this, ptr noundef nonnull align 8 dereferenceable(104) %other) unnamed_addr #4 align 2 personality ptr @__gxx_personality_v0 {
entry:
  %0 = load ptr, ptr %other, align 8
  store ptr %0, ptr %this, align 8
  %tobool.not.i = icmp eq ptr %0, null
  br i1 %tobool.not.i, label %_ZN13scoped_refptrIN3net11ProofSource5ChainEEC2ERKS3_.exit, label %if.then.i

if.then.i:                                        ; preds = %entry
  %add.ptr.i.i = getelementptr inbounds i8, ptr %0, i64 8
  %1 = load i32, ptr %add.ptr.i.i, align 4
  %inc.i.i.i.i = add nsw i32 %1, 1
  store i32 %inc.i.i.i.i, ptr %add.ptr.i.i, align 4
  br label %_ZN13scoped_refptrIN3net11ProofSource5ChainEEC2ERKS3_.exit

_ZN13scoped_refptrIN3net11ProofSource5ChainEEC2ERKS3_.exit: ; preds = %entry, %if.then.i
  %client_common_set_hashes_ = getelementptr inbounds i8, ptr %this, i64 8
  %client_common_set_hashes_3 = getelementptr inbounds i8, ptr %other, i64 8
  invoke void @_ZNSt7__cxx1112basic_stringIcSt11char_traitsIcESaIcEEC1ERKS4_(ptr noundef nonnull align 8 dereferenceable(32) %client_common_set_hashes_, ptr noundef nonnull align 8 dereferenceable(32) %client_common_set_hashes_3)
          to label %invoke.cont unwind label %lpad

invoke.cont:                                      ; preds = %_ZN13scoped_refptrIN3net11ProofSource5ChainEEC2ERKS3_.exit
  %client_cached_cert_hashes_ = getelementptr inbounds i8, ptr %this, i64 40
  %client_cached_cert_hashes_4 = getelementptr inbounds i8, ptr %other, i64 40
  invoke void @_ZNSt7__cxx1112basic_stringIcSt11char_traitsIcESaIcEEC1ERKS4_(ptr noundef nonnull align 8 dereferenceable(32) %client_cached_cert_hashes_, ptr noundef nonnull align 8 dereferenceable(32) %client_cached_cert_hashes_4)
          to label %invoke.cont6 unwind label %lpad5

invoke.cont6:                                     ; preds = %invoke.cont
  %compressed_cert_ = getelementptr inbounds i8, ptr %this, i64 72
  %compressed_cert_7 = getelementptr inbounds i8, ptr %other, i64 72
  invoke void @_ZNSt7__cxx1112basic_stringIcSt11char_traitsIcESaIcEEC1ERKS4_(ptr noundef nonnull align 8 dereferenceable(32) %compressed_cert_, ptr noundef nonnull align 8 dereferenceable(32) %compressed_cert_7)
          to label %invoke.cont9 unwind label %lpad8

invoke.cont9:                                     ; preds = %invoke.cont6
  ret void

lpad:                                             ; preds = %_ZN13scoped_refptrIN3net11ProofSource5ChainEEC2ERKS3_.exit
  %2 = landingpad { ptr, i32 }
          cleanup
  br label %ehcleanup10

lpad5:                                            ; preds = %invoke.cont
  %3 = landingpad { ptr, i32 }
          cleanup
  br label %ehcleanup

lpad8:                                            ; preds = %invoke.cont6
  %4 = landingpad { ptr, i32 }
          cleanup
  tail call void @_ZNSt7__cxx1112basic_stringIcSt11char_traitsIcESaIcEED1Ev(ptr noundef nonnull align 8 dereferenceable(32) %client_cached_cert_hashes_) #13
  br label %ehcleanup

ehcleanup:                                        ; preds = %lpad8, %lpad5
  %.pn = phi { ptr, i32 } [ %4, %lpad8 ], [ %3, %lpad5 ]
  tail call void @_ZNSt7__cxx1112basic_stringIcSt11char_traitsIcESaIcEED1Ev(ptr noundef nonnull align 8 dereferenceable(32) %client_common_set_hashes_) #13
  br label %ehcleanup10

ehcleanup10:                                      ; preds = %ehcleanup, %lpad
  %.pn.pn = phi { ptr, i32 } [ %.pn, %ehcleanup ], [ %2, %lpad ]
  %5 = load ptr, ptr %this, align 8
  %tobool.not.i6 = icmp eq ptr %5, null
  br i1 %tobool.not.i6, label %_ZN13scoped_refptrIN3net11ProofSource5ChainEED2Ev.exit, label %if.then.i7

if.then.i7:                                       ; preds = %ehcleanup10
  %add.ptr.i.i8 = getelementptr inbounds i8, ptr %5, i64 8
  %6 = load i32, ptr %add.ptr.i.i8, align 4
  %dec.i.i.i.i = add nsw i32 %6, -1
  store i32 %dec.i.i.i.i, ptr %add.ptr.i.i8, align 4
  %cmp.i.i.i.i = icmp eq i32 %dec.i.i.i.i, 0
  br i1 %cmp.i.i.i.i, label %delete.notnull.i.i.i, label %_ZN13scoped_refptrIN3net11ProofSource5ChainEED2Ev.exit

delete.notnull.i.i.i:                             ; preds = %if.then.i7
  %vtable.i.i.i = load ptr, ptr %5, align 8
  %vfn.i.i.i = getelementptr inbounds i8, ptr %vtable.i.i.i, i64 8
  %7 = load ptr, ptr %vfn.i.i.i, align 8
  tail call void %7(ptr noundef nonnull align 8 dereferenceable(40) %5) #13
  br label %_ZN13scoped_refptrIN3net11ProofSource5ChainEED2Ev.exit

_ZN13scoped_refptrIN3net11ProofSource5ChainEED2Ev.exit: ; preds = %ehcleanup10, %if.then.i7, %delete.notnull.i.i.i
  resume { ptr, i32 } %.pn.pn
}